target datalayout = "e-m:e-p270:32:32-p271:32:32-p272:64:64-i64:64-i128:128-f80:128-n8:16:32:64-S128"
target triple = "x86_64-pc-linux-gnu"

%struct.Hop_Obj_t_ = type { %union.anon, %union.anon.0, ptr, ptr, i32, i32 }
%union.anon = type { ptr }
%union.anon.0 = type { ptr }
%struct.Vec_Ptr_t_ = type { i32, i32, ptr }
%struct.Hop_Man_t_ = type { ptr, ptr, ptr, ptr, %struct.Hop_Obj_t_, [6 x i32], i32, i32, ptr, i32, ptr, i32, i32, i32, ptr, ptr, ptr, i64, i64 }

; Function Attrs: inlinehint nounwind uwtable
define internal ptr @Hop_Regular(ptr noundef %0) #1 {
  %2 = alloca ptr, align 8
  store ptr %0, ptr %2, align 8, !tbaa !3
  %3 = load ptr, ptr %2, align 8, !tbaa !3
  %4 = ptrtoint ptr %3 to i64
  %5 = and i64 %4, -2
  %6 = inttoptr i64 %5 to ptr
  ret ptr %6
}

; Function Attrs: inlinehint nounwind uwtable
define internal ptr @Hop_ObjFanin1(ptr noundef %0) #1 {
  %2 = alloca ptr, align 8
  store ptr %0, ptr %2, align 8, !tbaa !3
  %3 = load ptr, ptr %2, align 8, !tbaa !3
  %4 = getelementptr inbounds nuw %struct.Hop_Obj_t_, ptr %3, i32 0, i32 3
  %5 = load ptr, ptr %4, align 8, !tbaa !13
  %6 = call ptr @Hop_Regular(ptr noundef %5)
  ret ptr %6
}

; Function Attrs: inlinehint nounwind uwtable
define internal void @Hop_ObjRef(ptr noundef %0) #1 {
  %2 = alloca ptr, align 8
  store ptr %0, ptr %2, align 8, !tbaa !3
  %3 = load ptr, ptr %2, align 8, !tbaa !3
  %4 = getelementptr inbounds nuw %struct.Hop_Obj_t_, ptr %3, i32 0, i32 4
  %5 = load i32, ptr %4, align 8
  %6 = lshr i32 %5, 6
  %7 = add i32 %6, 1
  %8 = load i32, ptr %4, align 8
  %9 = and i32 %7, 67108863
  %10 = shl i32 %9, 6
  %11 = and i32 %8, 63
  %12 = or i32 %11, %10
  store i32 %12, ptr %4, align 8
  ret void
}

; Function Attrs: inlinehint nounwind uwtable
define internal ptr @Hop_ObjFanin0(ptr noundef %0) #1 {
  %2 = alloca ptr, align 8
  store ptr %0, ptr %2, align 8, !tbaa !3
  %3 = load ptr, ptr %2, align 8, !tbaa !3
  %4 = getelementptr inbounds nuw %struct.Hop_Obj_t_, ptr %3, i32 0, i32 2
  %5 = load ptr, ptr %4, align 8, !tbaa !10
  %6 = call ptr @Hop_Regular(ptr noundef %5)
  ret ptr %6
}

; Function Attrs: inlinehint nounwind uwtable
define internal ptr @Vec_PtrEntry(ptr noundef %0, i32 noundef %1) #1 {
  %3 = alloca ptr, align 8
  %4 = alloca i32, align 4
  store ptr %0, ptr %3, align 8, !tbaa !8
  store i32 %1, ptr %4, align 4, !tbaa !21
  %5 = load ptr, ptr %3, align 8, !tbaa !8
  %6 = getelementptr inbounds nuw %struct.Vec_Ptr_t_, ptr %5, i32 0, i32 2
  %7 = load ptr, ptr %6, align 8, !tbaa !18
  %8 = load i32, ptr %4, align 4, !tbaa !21
  %9 = sext i32 %8 to i64
  %10 = getelementptr inbounds ptr, ptr %7, i64 %9
  %11 = load ptr, ptr %10, align 8, !tbaa !14
  ret ptr %11
}

; Function Attrs: inlinehint nounwind uwtable
define internal i32 @Vec_PtrSize(ptr noundef %0) #1 {
  %2 = alloca ptr, align 8
  store ptr %0, ptr %2, align 8, !tbaa !8
  %3 = load ptr, ptr %2, align 8, !tbaa !8
  %4 = getelementptr inbounds nuw %struct.Vec_Ptr_t_, ptr %3, i32 0, i32 1
  %5 = load i32, ptr %4, align 4, !tbaa !15
  ret i32 %5
}

; Function Attrs: inlinehint nounwind uwtable
define internal void @Hop_ObjClearRef(ptr noundef %0) #1 {
  %2 = alloca ptr, align 8
  store ptr %0, ptr %2, align 8, !tbaa !3
  %3 = load ptr, ptr %2, align 8, !tbaa !3
  %4 = getelementptr inbounds nuw %struct.Hop_Obj_t_, ptr %3, i32 0, i32 4
  %5 = load i32, ptr %4, align 8
  %6 = and i32 %5, 63
  %7 = or i32 %6, 0
  store i32 %7, ptr %4, align 8
  ret void
}

; Function Attrs: inlinehint nounwind uwtable
define internal ptr @Hop_ManConst1(ptr noundef %0) #1 {
  %2 = alloca ptr, align 8
  store ptr %0, ptr %2, align 8, !tbaa !19
  %3 = load ptr, ptr %2, align 8, !tbaa !19
  %4 = getelementptr inbounds nuw %struct.Hop_Man_t_, ptr %3, i32 0, i32 3
  %5 = load ptr, ptr %4, align 8, !tbaa !37
  ret ptr %5
}

; Function Attrs: nounwind uwtable
define void @Hop_ManCreateRefs(ptr noundef %0) #0 {
  %2 = alloca ptr, align 8
  %3 = alloca ptr, align 8
  %4 = alloca i32, align 4
  %5 = alloca i32, align 4
  store ptr %0, ptr %2, align 8, !tbaa !19
  call void @llvm.lifetime.start.p0(i64 8, ptr %3) #7
  call void @llvm.lifetime.start.p0(i64 4, ptr %4) #7
  %6 = load ptr, ptr %2, align 8, !tbaa !19
  %7 = getelementptr inbounds nuw %struct.Hop_Man_t_, ptr %6, i32 0, i32 12
  %8 = load i32, ptr %7, align 4, !tbaa !38
  %9 = icmp ne i32 %8, 0
  br i1 %9, label %10, label %11

10:                                               ; preds = %1
  store i32 1, ptr %5, align 4
  br label %129

11:                                               ; preds = %1
  %12 = load ptr, ptr %2, align 8, !tbaa !19
  %13 = getelementptr inbounds nuw %struct.Hop_Man_t_, ptr %12, i32 0, i32 12
  store i32 1, ptr %13, align 4, !tbaa !38
  %14 = load ptr, ptr %2, align 8, !tbaa !19
  %15 = call ptr @Hop_ManConst1(ptr noundef %14)
  call void @Hop_ObjClearRef(ptr noundef %15)
  store i32 0, ptr %4, align 4, !tbaa !21
  br label %16

16:                                               ; preds = %33, %11
  %17 = load i32, ptr %4, align 4, !tbaa !21
  %18 = load ptr, ptr %2, align 8, !tbaa !19
  %19 = getelementptr inbounds nuw %struct.Hop_Man_t_, ptr %18, i32 0, i32 0
  %20 = load ptr, ptr %19, align 8, !tbaa !32
  %21 = call i32 @Vec_PtrSize(ptr noundef %20)
  %22 = icmp slt i32 %17, %21
  br i1 %22, label %23, label %29

23:                                               ; preds = %16
  %24 = load ptr, ptr %2, align 8, !tbaa !19
  %25 = getelementptr inbounds nuw %struct.Hop_Man_t_, ptr %24, i32 0, i32 0
  %26 = load ptr, ptr %25, align 8, !tbaa !32
  %27 = load i32, ptr %4, align 4, !tbaa !21
  %28 = call ptr @Vec_PtrEntry(ptr noundef %26, i32 noundef %27)
  store ptr %28, ptr %3, align 8, !tbaa !3
  br label %29

29:                                               ; preds = %23, %16
  %30 = phi i1 [ false, %16 ], [ true, %23 ]
  br i1 %30, label %31, label %36

31:                                               ; preds = %29
  %32 = load ptr, ptr %3, align 8, !tbaa !3
  call void @Hop_ObjClearRef(ptr noundef %32)
  br label %33

33:                                               ; preds = %31
  %34 = load i32, ptr %4, align 4, !tbaa !21
  %35 = add nsw i32 %34, 1
  store i32 %35, ptr %4, align 4, !tbaa !21
  br label %16, !llvm.loop !39

36:                                               ; preds = %29
  store i32 0, ptr %4, align 4, !tbaa !21
  br label %37

37:                                               ; preds = %56, %36
  %38 = load i32, ptr %4, align 4, !tbaa !21
  %39 = load ptr, ptr %2, align 8, !tbaa !19
  %40 = getelementptr inbounds nuw %struct.Hop_Man_t_, ptr %39, i32 0, i32 9
  %41 = load i32, ptr %40, align 8, !tbaa !22
  %42 = icmp slt i32 %38, %41
  br i1 %42, label %43, label %59

43:                                               ; preds = %37
  %44 = load ptr, ptr %2, align 8, !tbaa !19
  %45 = getelementptr inbounds nuw %struct.Hop_Man_t_, ptr %44, i32 0, i32 8
  %46 = load ptr, ptr %45, align 8, !tbaa !26
  %47 = load i32, ptr %4, align 4, !tbaa !21
  %48 = sext i32 %47 to i64
  %49 = getelementptr inbounds ptr, ptr %46, i64 %48
  %50 = load ptr, ptr %49, align 8, !tbaa !3
  store ptr %50, ptr %3, align 8, !tbaa !3
  %51 = icmp eq ptr %50, null
  br i1 %51, label %52, label %53

52:                                               ; preds = %43
  br label %55

53:                                               ; preds = %43
  %54 = load ptr, ptr %3, align 8, !tbaa !3
  call void @Hop_ObjClearRef(ptr noundef %54)
  br label %55

55:                                               ; preds = %53, %52
  br label %56

56:                                               ; preds = %55
  %57 = load i32, ptr %4, align 4, !tbaa !21
  %58 = add nsw i32 %57, 1
  store i32 %58, ptr %4, align 4, !tbaa !21
  br label %37, !llvm.loop !40

59:                                               ; preds = %37
  store i32 0, ptr %4, align 4, !tbaa !21
  br label %60

60:                                               ; preds = %77, %59
  %61 = load i32, ptr %4, align 4, !tbaa !21
  %62 = load ptr, ptr %2, align 8, !tbaa !19
  %63 = getelementptr inbounds nuw %struct.Hop_Man_t_, ptr %62, i32 0, i32 1
  %64 = load ptr, ptr %63, align 8, !tbaa !35
  %65 = call i32 @Vec_PtrSize(ptr noundef %64)
  %66 = icmp slt i32 %61, %65
  br i1 %66, label %67, label %73

67:                                               ; preds = %60
  %68 = load ptr, ptr %2, align 8, !tbaa !19
  %69 = getelementptr inbounds nuw %struct.Hop_Man_t_, ptr %68, i32 0, i32 1
  %70 = load ptr, ptr %69, align 8, !tbaa !35
  %71 = load i32, ptr %4, align 4, !tbaa !21
  %72 = call ptr @Vec_PtrEntry(ptr noundef %70, i32 noundef %71)
  store ptr %72, ptr %3, align 8, !tbaa !3
  br label %73

73:                                               ; preds = %67, %60
  %74 = phi i1 [ false, %60 ], [ true, %67 ]
  br i1 %74, label %75, label %80

75:                                               ; preds = %73
  %76 = load ptr, ptr %3, align 8, !tbaa !3
  call void @Hop_ObjClearRef(ptr noundef %76)
  br label %77

77:                                               ; preds = %75
  %78 = load i32, ptr %4, align 4, !tbaa !21
  %79 = add nsw i32 %78, 1
  store i32 %79, ptr %4, align 4, !tbaa !21
  br label %60, !llvm.loop !41

80:                                               ; preds = %73
  store i32 0, ptr %4, align 4, !tbaa !21
  br label %81

81:                                               ; preds = %103, %80
  %82 = load i32, ptr %4, align 4, !tbaa !21
  %83 = load ptr, ptr %2, align 8, !tbaa !19
  %84 = getelementptr inbounds nuw %struct.Hop_Man_t_, ptr %83, i32 0, i32 9
  %85 = load i32, ptr %84, align 8, !tbaa !22
  %86 = icmp slt i32 %82, %85
  br i1 %86, label %87, label %106

87:                                               ; preds = %81
  %88 = load ptr, ptr %2, align 8, !tbaa !19
  %89 = getelementptr inbounds nuw %struct.Hop_Man_t_, ptr %88, i32 0, i32 8
  %90 = load ptr, ptr %89, align 8, !tbaa !26
  %91 = load i32, ptr %4, align 4, !tbaa !21
  %92 = sext i32 %91 to i64
  %93 = getelementptr inbounds ptr, ptr %90, i64 %92
  %94 = load ptr, ptr %93, align 8, !tbaa !3
  store ptr %94, ptr %3, align 8, !tbaa !3
  %95 = icmp eq ptr %94, null
  br i1 %95, label %96, label %97

96:                                               ; preds = %87
  br label %102

97:                                               ; preds = %87
  %98 = load ptr, ptr %3, align 8, !tbaa !3
  %99 = call ptr @Hop_ObjFanin0(ptr noundef %98)
  call void @Hop_ObjRef(ptr noundef %99)
  %100 = load ptr, ptr %3, align 8, !tbaa !3
  %101 = call ptr @Hop_ObjFanin1(ptr noundef %100)
  call void @Hop_ObjRef(ptr noundef %101)
  br label %102

102:                                              ; preds = %97, %96
  br label %103

103:                                              ; preds = %102
  %104 = load i32, ptr %4, align 4, !tbaa !21
  %105 = add nsw i32 %104, 1
  store i32 %105, ptr %4, align 4, !tbaa !21
  br label %81, !llvm.loop !42

106:                                              ; preds = %81
  store i32 0, ptr %4, align 4, !tbaa !21
  br label %107

107:                                              ; preds = %125, %106
  %108 = load i32, ptr %4, align 4, !tbaa !21
  %109 = load ptr, ptr %2, align 8, !tbaa !19
  %110 = getelementptr inbounds nuw %struct.Hop_Man_t_, ptr %109, i32 0, i32 1
  %111 = load ptr, ptr %110, align 8, !tbaa !35
  %112 = call i32 @Vec_PtrSize(ptr noundef %111)
  %113 = icmp slt i32 %108, %112
  br i1 %113, label %114, label %120

114:                                              ; preds = %107
  %115 = load ptr, ptr %2, align 8, !tbaa !19
  %116 = getelementptr inbounds nuw %struct.Hop_Man_t_, ptr %115, i32 0, i32 1
  %117 = load ptr, ptr %116, align 8, !tbaa !35
  %118 = load i32, ptr %4, align 4, !tbaa !21
  %119 = call ptr @Vec_PtrEntry(ptr noundef %117, i32 noundef %118)
  store ptr %119, ptr %3, align 8, !tbaa !3
  br label %120

120:                                              ; preds = %114, %107
  %121 = phi i1 [ false, %107 ], [ true, %114 ]
  br i1 %121, label %122, label %128

122:                                              ; preds = %120
  %123 = load ptr, ptr %3, align 8, !tbaa !3
  %124 = call ptr @Hop_ObjFanin0(ptr noundef %123)
  call void @Hop_ObjRef(ptr noundef %124)
  br label %125

125:                                              ; preds = %122
  %126 = load i32, ptr %4, align 4, !tbaa !21
  %127 = add nsw i32 %126, 1
  store i32 %127, ptr %4, align 4, !tbaa !21
  br label %107, !llvm.loop !43

128:                                              ; preds = %120
  store i32 0, ptr %5, align 4
  br label %129

129:                                              ; preds = %128, %10
  call void @llvm.lifetime.end.p0(i64 4, ptr %4) #7
  call void @llvm.lifetime.end.p0(i64 8, ptr %3) #7
  %130 = load i32, ptr %5, align 4
  switch i32 %130, label %132 [
    i32 0, label %131
    i32 1, label %131
  ]

131:                                              ; preds = %129, %129
  ret void

132:                                              ; preds = %129
  unreachable
}