; Function Attrs: nofree norecurse nosync nounwind memory(readwrite, inaccessiblemem: none) uwtable
define void @Hop_ManCreateRefs(ptr noundef captures(none) %0) local_unnamed_addr #1 {
  %2 = getelementptr inbounds nuw i8, ptr %0, i64 132
  %3 = load i32, ptr %2, align 4, !tbaa !35
  %.not = icmp eq i32 %3, 0
  br i1 %.not, label %4, label %.critedge4

4:                                                ; preds = %1
  store i32 1, ptr %2, align 4, !tbaa !35
  %5 = getelementptr i8, ptr %0, i64 24
  %.val47 = load ptr, ptr %5, align 8, !tbaa !28
  %6 = getelementptr inbounds nuw i8, ptr %.val47, i64 32
  %7 = load i32, ptr %6, align 8
  %8 = and i32 %7, 63
  store i32 %8, ptr %6, align 8
  %9 = load ptr, ptr %0, align 8, !tbaa !30
  %10 = getelementptr i8, ptr %9, i64 4
  %.val4350 = load i32, ptr %10, align 4, !tbaa !11
  %11 = icmp sgt i32 %.val4350, 0
  br i1 %11, label %.lr.ph, label %.critedge.preheader

.critedge.preheader:                              ; preds = %.lr.ph, %4
  %12 = getelementptr inbounds nuw i8, ptr %0, i64 112
  %13 = load i32, ptr %12, align 8, !tbaa !17
  %14 = icmp sgt i32 %13, 0
  br i1 %14, label %.lr.ph53, label %.preheader48

.lr.ph53:                                         ; preds = %.critedge.preheader
  %15 = getelementptr inbounds nuw i8, ptr %0, i64 104
  br label %32

.lr.ph:                                           ; preds = %4, %.lr.ph
  %indvars.iv = phi i64 [ %indvars.iv.next, %.lr.ph ], [ 0, %4 ]
  %16 = phi ptr [ %23, %.lr.ph ], [ %9, %4 ]
  %17 = getelementptr i8, ptr %16, i64 8
  %.val46 = load ptr, ptr %17, align 8, !tbaa !14
  %18 = getelementptr inbounds nuw ptr, ptr %.val46, i64 %indvars.iv
  %19 = load ptr, ptr %18, align 8, !tbaa !15
  %20 = getelementptr inbounds nuw i8, ptr %19, i64 32
  %21 = load i32, ptr %20, align 8
  %22 = and i32 %21, 63
  store i32 %22, ptr %20, align 8
  %indvars.iv.next = add nuw nsw i64 %indvars.iv, 1
  %23 = load ptr, ptr %0, align 8, !tbaa !30
  %24 = getelementptr i8, ptr %23, i64 4
  %.val43 = load i32, ptr %24, align 4, !tbaa !11
  %25 = sext i32 %.val43 to i64
  %26 = icmp slt i64 %indvars.iv.next, %25
  br i1 %26, label %.lr.ph, label %.critedge.preheader, !llvm.loop !36

.preheader48:                                     ; preds = %.critedge, %.critedge.preheader
  %27 = phi i32 [ %13, %.critedge.preheader ], [ %42, %.critedge ]
  %28 = getelementptr inbounds nuw i8, ptr %0, i64 8
  %29 = load ptr, ptr %28, align 8, !tbaa !33
  %30 = getelementptr i8, ptr %29, i64 4
  %.val4254 = load i32, ptr %30, align 4, !tbaa !11
  %31 = icmp sgt i32 %.val4254, 0
  br i1 %31, label %.lr.ph56, label %.critedge2.preheader

32:                                               ; preds = %.lr.ph53, %.critedge
  %33 = phi i32 [ %13, %.lr.ph53 ], [ %42, %.critedge ]
  %indvars.iv63 = phi i64 [ 0, %.lr.ph53 ], [ %indvars.iv.next64, %.critedge ]
  %34 = load ptr, ptr %15, align 8, !tbaa !22
  %35 = getelementptr inbounds nuw ptr, ptr %34, i64 %indvars.iv63
  %36 = load ptr, ptr %35, align 8, !tbaa !23
  %37 = icmp eq ptr %36, null
  br i1 %37, label %.critedge, label %38

38:                                               ; preds = %32
  %39 = getelementptr inbounds nuw i8, ptr %36, i64 32
  %40 = load i32, ptr %39, align 8
  %41 = and i32 %40, 63
  store i32 %41, ptr %39, align 8
  %.pre = load i32, ptr %12, align 8, !tbaa !17
  br label %.critedge

.critedge:                                        ; preds = %38, %32
  %42 = phi i32 [ %.pre, %38 ], [ %33, %32 ]
  %indvars.iv.next64 = add nuw nsw i64 %indvars.iv63, 1
  %43 = sext i32 %42 to i64
  %44 = icmp slt i64 %indvars.iv.next64, %43
  br i1 %44, label %32, label %.preheader48, !llvm.loop !37

.critedge2.preheader.loopexit:                    ; preds = %.lr.ph56
  %.pre75 = load i32, ptr %12, align 8, !tbaa !17
  br label %.critedge2.preheader

.critedge2.preheader:                             ; preds = %.critedge2.preheader.loopexit, %.preheader48
  %45 = phi ptr [ %56, %.critedge2.preheader.loopexit ], [ %29, %.preheader48 ]
  %46 = phi i32 [ %.pre75, %.critedge2.preheader.loopexit ], [ %27, %.preheader48 ]
  %47 = icmp sgt i32 %46, 0
  br i1 %47, label %.lr.ph58, label %.preheader

.lr.ph58:                                         ; preds = %.critedge2.preheader
  %48 = getelementptr inbounds nuw i8, ptr %0, i64 104
  br label %63

.lr.ph56:                                         ; preds = %.preheader48, %.lr.ph56
  %indvars.iv66 = phi i64 [ %indvars.iv.next67, %.lr.ph56 ], [ 0, %.preheader48 ]
  %49 = phi ptr [ %56, %.lr.ph56 ], [ %29, %.preheader48 ]
  %50 = getelementptr i8, ptr %49, i64 8
  %.val45 = load ptr, ptr %50, align 8, !tbaa !14
  %51 = getelementptr inbounds nuw ptr, ptr %.val45, i64 %indvars.iv66
  %52 = load ptr, ptr %51, align 8, !tbaa !15
  %53 = getelementptr inbounds nuw i8, ptr %52, i64 32
  %54 = load i32, ptr %53, align 8
  %55 = and i32 %54, 63
  store i32 %55, ptr %53, align 8
  %indvars.iv.next67 = add nuw nsw i64 %indvars.iv66, 1
  %56 = load ptr, ptr %28, align 8, !tbaa !33
  %57 = getelementptr i8, ptr %56, i64 4
  %.val42 = load i32, ptr %57, align 4, !tbaa !11
  %58 = sext i32 %.val42 to i64
  %59 = icmp slt i64 %indvars.iv.next67, %58
  br i1 %59, label %.lr.ph56, label %.critedge2.preheader.loopexit, !llvm.loop !38

.preheader.loopexit:                              ; preds = %.critedge2
  %.pre77 = load ptr, ptr %28, align 8, !tbaa !33
  br label %.preheader

.preheader:                                       ; preds = %.preheader.loopexit, %.critedge2.preheader
  %60 = phi ptr [ %.pre77, %.preheader.loopexit ], [ %45, %.critedge2.preheader ]
  %61 = getelementptr i8, ptr %60, i64 4
  %.val4159 = load i32, ptr %61, align 4, !tbaa !11
  %62 = icmp sgt i32 %.val4159, 0
  br i1 %62, label %.lr.ph61, label %.critedge4

63:                                               ; preds = %.lr.ph58, %.critedge2
  %64 = phi i32 [ %46, %.lr.ph58 ], [ %90, %.critedge2 ]
  %indvars.iv69 = phi i64 [ 0, %.lr.ph58 ], [ %indvars.iv.next70, %.critedge2 ]
  %65 = load ptr, ptr %48, align 8, !tbaa !22
  %66 = getelementptr inbounds nuw ptr, ptr %65, i64 %indvars.iv69
  %67 = load ptr, ptr %66, align 8, !tbaa !23
  %68 = icmp eq ptr %67, null
  br i1 %68, label %.critedge2, label %69

69:                                               ; preds = %63
  %70 = getelementptr i8, ptr %67, i64 16
  %.val39 = load ptr, ptr %70, align 8, !tbaa !3
  %71 = ptrtoint ptr %.val39 to i64
  %72 = and i64 %71, -2
  %73 = inttoptr i64 %72 to ptr
  %74 = getelementptr inbounds nuw i8, ptr %73, i64 32
  %75 = load i32, ptr %74, align 8
  %76 = and i32 %75, -64
  %77 = add i32 %76, 64
  %78 = and i32 %75, 63
  %79 = or disjoint i32 %77, %78
  store i32 %79, ptr %74, align 8
  %80 = getelementptr i8, ptr %67, i64 24
  %.val40 = load ptr, ptr %80, align 8, !tbaa !10
  %81 = ptrtoint ptr %.val40 to i64
  %82 = and i64 %81, -2
  %83 = inttoptr i64 %82 to ptr
  %84 = getelementptr inbounds nuw i8, ptr %83, i64 32
  %85 = load i32, ptr %84, align 8
  %86 = and i32 %85, -64
  %87 = add i32 %86, 64
  %88 = and i32 %85, 63
  %89 = or disjoint i32 %87, %88
  store i32 %89, ptr %84, align 8
  %.pre76 = load i32, ptr %12, align 8, !tbaa !17
  br label %.critedge2

.critedge2:                                       ; preds = %69, %63
  %90 = phi i32 [ %.pre76, %69 ], [ %64, %63 ]
  %indvars.iv.next70 = add nuw nsw i64 %indvars.iv69, 1
  %91 = sext i32 %90 to i64
  %92 = icmp slt i64 %indvars.iv.next70, %91
  br i1 %92, label %63, label %.preheader.loopexit, !llvm.loop !39

.lr.ph61:                                         ; preds = %.preheader, %.lr.ph61
  %indvars.iv72 = phi i64 [ %indvars.iv.next73, %.lr.ph61 ], [ 0, %.preheader ]
  %93 = phi ptr [ %107, %.lr.ph61 ], [ %60, %.preheader ]
  %94 = getelementptr i8, ptr %93, i64 8
  %.val44 = load ptr, ptr %94, align 8, !tbaa !14
  %95 = getelementptr inbounds nuw ptr, ptr %.val44, i64 %indvars.iv72
  %96 = load ptr, ptr %95, align 8, !tbaa !15
  %97 = getelementptr i8, ptr %96, i64 16
  %.val = load ptr, ptr %97, align 8, !tbaa !3
  %98 = ptrtoint ptr %.val to i64
  %99 = and i64 %98, -2
  %100 = inttoptr i64 %99 to ptr
  %101 = getelementptr inbounds nuw i8, ptr %100, i64 32
  %102 = load i32, ptr %101, align 8
  %103 = and i32 %102, -64
  %104 = add i32 %103, 64
  %105 = and i32 %102, 63
  %106 = or disjoint i32 %104, %105
  store i32 %106, ptr %101, align 8
  %indvars.iv.next73 = add nuw nsw i64 %indvars.iv72, 1
  %107 = load ptr, ptr %28, align 8, !tbaa !33
  %108 = getelementptr i8, ptr %107, i64 4
  %.val41 = load i32, ptr %108, align 4, !tbaa !11
  %109 = sext i32 %.val41 to i64
  %110 = icmp slt i64 %indvars.iv.next73, %109
  br i1 %110, label %.lr.ph61, label %.critedge4, !llvm.loop !40

.critedge4:                                       ; preds = %.lr.ph61, %.preheader, %1
  ret void
}